; Function Attrs: mustprogress nofree norecurse nosync nounwind willreturn memory(argmem: read) uwtable
define zeroext i1 @ulocale_isBogus_77(ptr noundef readonly %0) local_unnamed_addr #12 {
  %2 = icmp eq ptr %0, null
  br i1 %2, label %7, label %3

3:                                                ; preds = %1
  %4 = getelementptr inbounds nuw i8, ptr %0, i64 216
  %5 = load i8, ptr %4, align 8, !tbaa !20
  %6 = icmp ne i8 %5, 0
  br label %7

7:                                                ; preds = %1, %3
  %.0 = phi i1 [ %6, %3 ], [ false, %1 ]
  ret i1 %.0
}